target datalayout = "e-m:e-p270:32:32-p271:32:32-p272:64:64-i64:64-i128:128-f80:128-n8:16:32:64-S128"
target triple = "x86_64-pc-linux-gnu"

%"class.casadi::ZeroByZero" = type { %"class.casadi::ConstantMX" }
%"class.casadi::ConstantMX" = type { %"class.casadi::MXNode" }
%"class.casadi::MXNode" = type { %"class.casadi::SharedObjectInternal", i64, %"class.std::vector", %"class.casadi::Sparsity" }
%"class.casadi::SharedObjectInternal" = type { ptr, i64, ptr }
%"class.std::vector" = type { %"struct.std::_Vector_base" }
%"struct.std::_Vector_base" = type { %"struct.std::_Vector_base<casadi::MX, std::allocator<casadi::MX>>::_Vector_impl" }
%"struct.std::_Vector_base<casadi::MX, std::allocator<casadi::MX>>::_Vector_impl" = type { %"struct.std::_Vector_base<casadi::MX, std::allocator<casadi::MX>>::_Vector_impl_data" }
%"struct.std::_Vector_base<casadi::MX, std::allocator<casadi::MX>>::_Vector_impl_data" = type { ptr, ptr, ptr }
%"class.casadi::Sparsity" = type { %"class.casadi::SharedObject" }
%"class.casadi::SharedObject" = type { ptr }
%"struct.casadi::RuntimeConst.98" = type { double }
%"class.casadi::Constant.97" = type { %"class.casadi::ConstantMX", %"struct.casadi::RuntimeConst.98" }

@__dso_handle = external hidden global i8
@_ZZN6casadi10ZeroByZero11getInstanceEvE8instance = linkonce_odr global %"class.casadi::ZeroByZero" zeroinitializer, comdat, align 8
@_ZGVZN6casadi10ZeroByZero11getInstanceEvE8instance = linkonce_odr global i64 0, comdat, align 8

; Function Attrs: mustprogress uwtable
define void @_ZN6casadi10ConstantMXC2ERKNS_8SparsityE(ptr noundef nonnull align 8 dereferenceable(64) %0, ptr noundef nonnull align 8 dereferenceable(8) %1) unnamed_addr #4 align 2 personality ptr @__gxx_personality_v0 {
  %3 = alloca ptr, align 8
  %4 = alloca ptr, align 8
  %5 = alloca ptr, align 8
  %6 = alloca i32, align 4
  store ptr %0, ptr %3, align 8
  store ptr %1, ptr %4, align 8
  %7 = load ptr, ptr %3, align 8
  call void @_ZN6casadi6MXNodeC2Ev(ptr noundef nonnull align 8 dereferenceable(64) %7)
  store ptr getelementptr inbounds ({ [108 x ptr] }, ptr @_ZTVN6casadi10ConstantMXE, i32 0, i32 0, i32 2), ptr %7, align 8
  %8 = load ptr, ptr %4, align 8
  invoke void @_ZN6casadi6MXNode12set_sparsityERKNS_8SparsityE(ptr noundef nonnull align 8 dereferenceable(64) %7, ptr noundef nonnull align 8 dereferenceable(8) %8)
          to label %9 unwind label %10

9:                                                ; preds = %2
  ret void

10:                                               ; preds = %2
  %11 = landingpad { ptr, i32 }
          cleanup
  %12 = extractvalue { ptr, i32 } %11, 0
  store ptr %12, ptr %5, align 8
  %13 = extractvalue { ptr, i32 } %11, 1
  store i32 %13, ptr %6, align 4
  call void @_ZN6casadi6MXNodeD2Ev(ptr noundef nonnull align 8 dereferenceable(64) %7) #3
  br label %14

14:                                               ; preds = %10
  %15 = load ptr, ptr %5, align 8
  %16 = load i32, ptr %6, align 4
  %17 = insertvalue { ptr, i32 } poison, ptr %15, 0
  %18 = insertvalue { ptr, i32 } %17, i32 %16, 1
  resume { ptr, i32 } %18
}

; Function Attrs: mustprogress uwtable
define linkonce_odr hidden void @_ZN6casadi8ConstantINS_12RuntimeConstIdEEEC2ERKNS_8SparsityES2_(ptr noundef nonnull align 8 dereferenceable(72) %0, ptr noundef nonnull align 8 dereferenceable(8) %1, double %2) unnamed_addr #4 comdat align 2 {
  %4 = alloca %"struct.casadi::RuntimeConst.98", align 8
  %5 = alloca ptr, align 8
  %6 = alloca ptr, align 8
  %7 = getelementptr inbounds %"struct.casadi::RuntimeConst.98", ptr %4, i32 0, i32 0
  store double %2, ptr %7, align 8
  store ptr %0, ptr %5, align 8
  store ptr %1, ptr %6, align 8
  %8 = load ptr, ptr %5, align 8
  %9 = load ptr, ptr %6, align 8
  call void @_ZN6casadi10ConstantMXC2ERKNS_8SparsityE(ptr noundef nonnull align 8 dereferenceable(64) %8, ptr noundef nonnull align 8 dereferenceable(8) %9)
  store ptr getelementptr inbounds ({ [108 x ptr] }, ptr @_ZTVN6casadi8ConstantINS_12RuntimeConstIdEEEE, i32 0, i32 0, i32 2), ptr %8, align 8
  %10 = getelementptr inbounds %"class.casadi::Constant.97", ptr %8, i32 0, i32 1
  call void @llvm.memcpy.p0.p0.i64(ptr align 8 %10, ptr align 8 %4, i64 8, i1 false)
  ret void
}

; Function Attrs: mustprogress nounwind uwtable
define linkonce_odr hidden void @_ZN6casadi12RuntimeConstIdEC2Ed(ptr noundef nonnull align 8 dereferenceable(8) %0, double noundef %1) unnamed_addr #5 comdat align 2 {
  %3 = alloca ptr, align 8
  %4 = alloca double, align 8
  store ptr %0, ptr %3, align 8
  store double %1, ptr %4, align 8
  %5 = load ptr, ptr %3, align 8
  %6 = getelementptr inbounds %"struct.casadi::RuntimeConst.98", ptr %5, i32 0, i32 0
  %7 = load double, ptr %4, align 8
  store double %7, ptr %6, align 8
  ret void
}

; Function Attrs: mustprogress uwtable
define linkonce_odr hidden noundef ptr @_ZN6casadi10ZeroByZero11getInstanceEv() #4 comdat align 2 personality ptr @__gxx_personality_v0 {
  %1 = alloca ptr, align 8
  %2 = alloca i32, align 4
  %3 = load atomic i8, ptr @_ZGVZN6casadi10ZeroByZero11getInstanceEvE8instance acquire, align 8
  %4 = icmp eq i8 %3, 0
  br i1 %4, label %5, label %11, !prof !6

5:                                                ; preds = %0
  %6 = call i32 @__cxa_guard_acquire(ptr @_ZGVZN6casadi10ZeroByZero11getInstanceEvE8instance) #3
  %7 = icmp ne i32 %6, 0
  br i1 %7, label %8, label %11

8:                                                ; preds = %5
  invoke void @_ZN6casadi10ZeroByZeroC2Ev(ptr noundef nonnull align 8 dereferenceable(64) @_ZZN6casadi10ZeroByZero11getInstanceEvE8instance)
          to label %9 unwind label %12

9:                                                ; preds = %8
  %10 = call i32 @__cxa_atexit(ptr @_ZN6casadi10ZeroByZeroD2Ev, ptr @_ZZN6casadi10ZeroByZero11getInstanceEvE8instance, ptr @__dso_handle) #3
  call void @__cxa_guard_release(ptr @_ZGVZN6casadi10ZeroByZero11getInstanceEvE8instance) #3
  br label %11

11:                                               ; preds = %9, %5, %0
  ret ptr @_ZZN6casadi10ZeroByZero11getInstanceEvE8instance

12:                                               ; preds = %8
  %13 = landingpad { ptr, i32 }
          cleanup
  %14 = extractvalue { ptr, i32 } %13, 0
  store ptr %14, ptr %1, align 8
  %15 = extractvalue { ptr, i32 } %13, 1
  store i32 %15, ptr %2, align 4
  call void @__cxa_guard_abort(ptr @_ZGVZN6casadi10ZeroByZero11getInstanceEvE8instance) #3
  br label %16

16:                                               ; preds = %12
  %17 = load ptr, ptr %1, align 8
  %18 = load i32, ptr %2, align 4
  %19 = insertvalue { ptr, i32 } poison, ptr %17, 0
  %20 = insertvalue { ptr, i32 } %19, i32 %18, 1
  resume { ptr, i32 } %20
}

; Function Attrs: mustprogress uwtable
define noundef ptr @_ZN6casadi10ConstantMX6createERKNS_8SparsityEd(ptr noundef nonnull align 8 dereferenceable(8) %0, double noundef %1) #4 align 2 personality ptr @__gxx_personality_v0 {
  %3 = alloca ptr, align 8
  %4 = alloca ptr, align 8
  %5 = alloca double, align 8
  %6 = alloca i64, align 8
  %7 = alloca %"struct.casadi::RuntimeConst.98", align 8
  %8 = alloca ptr, align 8
  %9 = alloca i32, align 4
  store ptr %0, ptr %4, align 8
  store double %1, ptr %5, align 8
  %10 = load ptr, ptr %4, align 8
  %11 = call noundef zeroext i1 @_ZNK6casadi8Sparsity8is_emptyEb(ptr noundef nonnull align 8 dereferenceable(8) %10, i1 noundef zeroext true)
  br i1 %11, label %12, label %14

12:                                               ; preds = %2
  %13 = call noundef ptr @_ZN6casadi10ZeroByZero11getInstanceEv()
  store ptr %13, ptr %3, align 8
  br label %38

14:                                               ; preds = %2
  %15 = load double, ptr %5, align 8
  %16 = fptosi double %15 to i64
  store i64 %16, ptr %6, align 8
  %17 = load i64, ptr %6, align 8
  %18 = sitofp i64 %17 to double
  %19 = load double, ptr %5, align 8
  %20 = fsub double %18, %19
  %21 = fcmp oeq double %20, 0.000000e+00
  br i1 %21, label %22, label %26

22:                                               ; preds = %14
  %23 = load ptr, ptr %4, align 8
  %24 = load i64, ptr %6, align 8
  %25 = call noundef ptr @_ZN6casadi10ConstantMX6createERKNS_8SparsityEx(ptr noundef nonnull align 8 dereferenceable(8) %23, i64 noundef %24)
  store ptr %25, ptr %3, align 8
  br label %38

26:                                               ; preds = %14
  %27 = call noalias noundef nonnull ptr @_Znwm(i64 noundef 72) #17
  %28 = load ptr, ptr %4, align 8
  %29 = load double, ptr %5, align 8
  invoke void @_ZN6casadi12RuntimeConstIdEC2Ed(ptr noundef nonnull align 8 dereferenceable(8) %7, double noundef %29)
          to label %30 unwind label %34

30:                                               ; preds = %26
  %31 = getelementptr inbounds %"struct.casadi::RuntimeConst.98", ptr %7, i32 0, i32 0
  %32 = load double, ptr %31, align 8
  invoke void @_ZN6casadi8ConstantINS_12RuntimeConstIdEEEC2ERKNS_8SparsityES2_(ptr noundef nonnull align 8 dereferenceable(72) %27, ptr noundef nonnull align 8 dereferenceable(8) %28, double %32)
          to label %33 unwind label %34

33:                                               ; preds = %30
  store ptr %27, ptr %3, align 8
  br label %38

34:                                               ; preds = %30, %26
  %35 = landingpad { ptr, i32 }
          cleanup
  %36 = extractvalue { ptr, i32 } %35, 0
  store ptr %36, ptr %8, align 8
  %37 = extractvalue { ptr, i32 } %35, 1
  store i32 %37, ptr %9, align 4
  call void @_ZdlPv(ptr noundef %27) #18
  br label %40

38:                                               ; preds = %33, %22, %12
  %39 = load ptr, ptr %3, align 8
  ret ptr %39

40:                                               ; preds = %34
  %41 = load ptr, ptr %8, align 8
  %42 = load i32, ptr %9, align 4
  %43 = insertvalue { ptr, i32 } poison, ptr %41, 0
  %44 = insertvalue { ptr, i32 } %43, i32 %42, 1
  resume { ptr, i32 } %44
}