; Function Attrs: mustprogress uwtable
define noundef nonnull ptr @_ZN6casadi10ConstantMX6createERKNS_8SparsityEd(ptr noundef nonnull align 8 dereferenceable(8) %0, double noundef %1) local_unnamed_addr #3 align 2 personality ptr @__gxx_personality_v0 {
  %3 = tail call noundef zeroext i1 @_ZNK6casadi8Sparsity8is_emptyEb(ptr noundef nonnull align 8 dereferenceable(8) %0, i1 noundef zeroext true)
  br i1 %3, label %4, label %14

4:                                                ; preds = %2
  %5 = load atomic i8, ptr @_ZGVZN6casadi10ZeroByZero11getInstanceEvE8instance acquire, align 8
  %6 = icmp eq i8 %5, 0
  br i1 %6, label %7, label %_ZN6casadi10ZeroByZero11getInstanceEv.exit, !prof !16

7:                                                ; preds = %4
  %8 = tail call i32 @__cxa_guard_acquire(ptr nonnull @_ZGVZN6casadi10ZeroByZero11getInstanceEvE8instance) #25
  %.not.i = icmp eq i32 %8, 0
  br i1 %.not.i, label %_ZN6casadi10ZeroByZero11getInstanceEv.exit, label %9

9:                                                ; preds = %7
  invoke void @_ZN6casadi10ZeroByZeroC2Ev(ptr noundef nonnull align 8 dereferenceable(64) @_ZZN6casadi10ZeroByZero11getInstanceEvE8instance)
          to label %10 unwind label %12

10:                                               ; preds = %9
  %11 = tail call i32 @__cxa_atexit(ptr nonnull @_ZN6casadi10ZeroByZeroD2Ev, ptr nonnull @_ZZN6casadi10ZeroByZero11getInstanceEvE8instance, ptr nonnull @__dso_handle) #25
  tail call void @__cxa_guard_release(ptr nonnull @_ZGVZN6casadi10ZeroByZero11getInstanceEvE8instance) #25
  br label %_ZN6casadi10ZeroByZero11getInstanceEv.exit

common.resume:                                    ; preds = %.body, %12
  %common.resume.op = phi { ptr, i32 } [ %13, %12 ], [ %eh.lpad-body, %.body ]
  resume { ptr, i32 } %common.resume.op

12:                                               ; preds = %9
  %13 = landingpad { ptr, i32 }
          cleanup
  tail call void @__cxa_guard_abort(ptr nonnull @_ZGVZN6casadi10ZeroByZero11getInstanceEvE8instance) #25
  br label %common.resume

14:                                               ; preds = %2
  %15 = fptosi double %1 to i64
  %16 = sitofp i64 %15 to double
  %17 = fsub double %16, %1
  %18 = fcmp oeq double %17, 0.000000e+00
  br i1 %18, label %19, label %21

19:                                               ; preds = %14
  %20 = tail call noundef ptr @_ZN6casadi10ConstantMX6createERKNS_8SparsityEx(ptr noundef nonnull align 8 dereferenceable(8) %0, i64 noundef %15)
  br label %_ZN6casadi10ZeroByZero11getInstanceEv.exit

21:                                               ; preds = %14
  %22 = tail call noalias noundef nonnull dereferenceable(72) ptr @_Znwm(i64 noundef 72) #29
  invoke void @_ZN6casadi6MXNodeC2Ev(ptr noundef nonnull align 8 dereferenceable(64) %22)
          to label %.noexc unwind label %26

.noexc:                                           ; preds = %21
  store ptr getelementptr inbounds ({ [108 x ptr] }, ptr @_ZTVN6casadi10ConstantMXE, i64 0, i32 0, i64 2), ptr %22, align 8
  invoke void @_ZN6casadi6MXNode12set_sparsityERKNS_8SparsityE(ptr noundef nonnull align 8 dereferenceable(64) %22, ptr noundef nonnull align 8 dereferenceable(8) %0)
          to label %_ZN6casadi8ConstantINS_12RuntimeConstIdEEEC2ERKNS_8SparsityES2_.exit unwind label %23

23:                                               ; preds = %.noexc
  %24 = landingpad { ptr, i32 }
          cleanup
  tail call void @_ZN6casadi6MXNodeD2Ev(ptr noundef nonnull align 8 dereferenceable(64) %22) #25
  br label %.body

_ZN6casadi8ConstantINS_12RuntimeConstIdEEEC2ERKNS_8SparsityES2_.exit: ; preds = %.noexc
  store ptr getelementptr inbounds ({ [108 x ptr] }, ptr @_ZTVN6casadi8ConstantINS_12RuntimeConstIdEEEE, i64 0, i32 0, i64 2), ptr %22, align 8
  %25 = getelementptr inbounds i8, ptr %22, i64 64
  store double %1, ptr %25, align 8
  br label %_ZN6casadi10ZeroByZero11getInstanceEv.exit

26:                                               ; preds = %21
  %27 = landingpad { ptr, i32 }
          cleanup
  br label %.body

.body:                                            ; preds = %23, %26
  %eh.lpad-body = phi { ptr, i32 } [ %27, %26 ], [ %24, %23 ]
  tail call void @_ZdlPv(ptr noundef nonnull %22) #28
  br label %common.resume

_ZN6casadi10ZeroByZero11getInstanceEv.exit:       ; preds = %10, %7, %4, %_ZN6casadi8ConstantINS_12RuntimeConstIdEEEC2ERKNS_8SparsityES2_.exit, %19
  %.0 = phi ptr [ %20, %19 ], [ %22, %_ZN6casadi8ConstantINS_12RuntimeConstIdEEEC2ERKNS_8SparsityES2_.exit ], [ @_ZZN6casadi10ZeroByZero11getInstanceEvE8instance, %4 ], [ @_ZZN6casadi10ZeroByZero11getInstanceEvE8instance, %7 ], [ @_ZZN6casadi10ZeroByZero11getInstanceEvE8instance, %10 ]
  ret ptr %.0
}